(dp1
S'saved_by_info'
p2
(dp3
sS'tags'
p4
(dp5
Vcse06
p6
(lp7
I0
asS'pub'
p8
(lp9
I1
assS'id_number'
p10
I2
sS'pretty_print'
p11
I00
sS'system'
p12
S'sage'
p13
sS'published_id_number'
p14
NsS'owner'
p15
g8
sS'viewers'
p16
(lp17
sS'ratings'
p18
(lp19
sS'collaborators'
p20
(lp21
sS'name'
p22
VApriori
p23
sS'auto_publish'
p24
I00
sS'last_change'
p25
(Vcse06
p26
F1378137339.0724909
tp27
sS'worksheet_that_was_published'
p28
(Vcse06
p29
I0
tp30
s.